; ModuleID = '5/270.c'
source_filename = "5/270.c"
target datalayout = "e-m:e-p270:32:32-p271:32:32-p272:64:64-i64:64-f80:128-n8:16:32:64-S128"
target triple = "x86_64-pc-linux-gnu"

@.str = private unnamed_addr constant [4 x i8] c"%lf\00", align 1
@.str.1 = private unnamed_addr constant [6 x i8] c"%s %s\00", align 1
@.str.2 = private unnamed_addr constant [4 x i8] c"yes\00", align 1
@.str.3 = private unnamed_addr constant [3 x i8] c"no\00", align 1
@.str.4 = private unnamed_addr constant [6 x i8] c"error\00", align 1

; Function Attrs: noinline nounwind uwtable
define dso_local i32 @main() #0 {
  %1 = alloca i32, align 4
  %2 = alloca double, align 8
  %3 = alloca double, align 8
  %4 = alloca i32, align 4
  %5 = alloca i32, align 4
  %6 = alloca i32, align 4
  %7 = alloca i32, align 4
  %8 = alloca [2 x [500 x i8]], align 16
  store i32 0, i32* %1, align 4
  store i32 0, i32* %6, align 4
  store i32 0, i32* %7, align 4
  %9 = call i32 (i8*, ...) @__isoc99_scanf(i8* getelementptr inbounds ([4 x i8], [4 x i8]* @.str, i64 0, i64 0), double* %2)
  %10 = getelementptr inbounds [2 x [500 x i8]], [2 x [500 x i8]]* %8, i64 0, i64 0
  %11 = getelementptr inbounds [500 x i8], [500 x i8]* %10, i64 0, i64 0
  %12 = getelementptr inbounds [2 x [500 x i8]], [2 x [500 x i8]]* %8, i64 0, i64 1
  %13 = getelementptr inbounds [500 x i8], [500 x i8]* %12, i64 0, i64 0
  %14 = call i32 (i8*, ...) @__isoc99_scanf(i8* getelementptr inbounds ([6 x i8], [6 x i8]* @.str.1, i64 0, i64 0), i8* %11, i8* %13)
  %15 = getelementptr inbounds [2 x [500 x i8]], [2 x [500 x i8]]* %8, i64 0, i64 0
  %16 = getelementptr inbounds [500 x i8], [500 x i8]* %15, i64 0, i64 0
  %17 = call i64 @strlen(i8* %16) #3
  %18 = getelementptr inbounds [2 x [500 x i8]], [2 x [500 x i8]]* %8, i64 0, i64 1
  %19 = getelementptr inbounds [500 x i8], [500 x i8]* %18, i64 0, i64 0
  %20 = call i64 @strlen(i8* %19) #3
  %21 = icmp eq i64 %17, %20
  br i1 %21, label %22, label %126

22:                                               ; preds = %0
  %23 = getelementptr inbounds [2 x [500 x i8]], [2 x [500 x i8]]* %8, i64 0, i64 0
  %24 = getelementptr inbounds [500 x i8], [500 x i8]* %23, i64 0, i64 0
  %25 = call i64 @strlen(i8* %24) #3
  %26 = trunc i64 %25 to i32
  store i32 %26, i32* %4, align 4
  store i32 0, i32* %5, align 4
  br label %27

27:                                               ; preds = %116, %22
  %28 = load i32, i32* %5, align 4
  %29 = load i32, i32* %4, align 4
  %30 = icmp slt i32 %28, %29
  br i1 %30, label %31, label %119

31:                                               ; preds = %27
  %32 = getelementptr inbounds [2 x [500 x i8]], [2 x [500 x i8]]* %8, i64 0, i64 0
  %33 = load i32, i32* %5, align 4
  %34 = sext i32 %33 to i64
  %35 = getelementptr inbounds [500 x i8], [500 x i8]* %32, i64 0, i64 %34
  %36 = load i8, i8* %35, align 1
  %37 = sext i8 %36 to i32
  %38 = getelementptr inbounds [2 x [500 x i8]], [2 x [500 x i8]]* %8, i64 0, i64 1
  %39 = load i32, i32* %5, align 4
  %40 = sext i32 %39 to i64
  %41 = getelementptr inbounds [500 x i8], [500 x i8]* %38, i64 0, i64 %40
  %42 = load i8, i8* %41, align 1
  %43 = sext i8 %42 to i32
  %44 = icmp eq i32 %37, %43
  br i1 %44, label %45, label %48

45:                                               ; preds = %31
  %46 = load i32, i32* %6, align 4
  %47 = add nsw i32 %46, 1
  store i32 %47, i32* %6, align 4
  br label %48

48:                                               ; preds = %45, %31
  %49 = getelementptr inbounds [2 x [500 x i8]], [2 x [500 x i8]]* %8, i64 0, i64 0
  %50 = load i32, i32* %5, align 4
  %51 = sext i32 %50 to i64
  %52 = getelementptr inbounds [500 x i8], [500 x i8]* %49, i64 0, i64 %51
  %53 = load i8, i8* %52, align 1
  %54 = sext i8 %53 to i32
  %55 = icmp ne i32 %54, 65
  br i1 %55, label %56, label %80

56:                                               ; preds = %48
  %57 = getelementptr inbounds [2 x [500 x i8]], [2 x [500 x i8]]* %8, i64 0, i64 0
  %58 = load i32, i32* %5, align 4
  %59 = sext i32 %58 to i64
  %60 = getelementptr inbounds [500 x i8], [500 x i8]* %57, i64 0, i64 %59
  %61 = load i8, i8* %60, align 1
  %62 = sext i8 %61 to i32
  %63 = icmp ne i32 %62, 84
  br i1 %63, label %64, label %80

64:                                               ; preds = %56
  %65 = getelementptr inbounds [2 x [500 x i8]], [2 x [500 x i8]]* %8, i64 0, i64 0
  %66 = load i32, i32* %5, align 4
  %67 = sext i32 %66 to i64
  %68 = getelementptr inbounds [500 x i8], [500 x i8]* %65, i64 0, i64 %67
  %69 = load i8, i8* %68, align 1
  %70 = sext i8 %69 to i32
  %71 = icmp ne i32 %70, 67
  br i1 %71, label %72, label %80

72:                                               ; preds = %64
  %73 = getelementptr inbounds [2 x [500 x i8]], [2 x [500 x i8]]* %8, i64 0, i64 0
  %74 = load i32, i32* %5, align 4
  %75 = sext i32 %74 to i64
  %76 = getelementptr inbounds [500 x i8], [500 x i8]* %73, i64 0, i64 %75
  %77 = load i8, i8* %76, align 1
  %78 = sext i8 %77 to i32
  %79 = icmp ne i32 %78, 71
  br i1 %79, label %112, label %80

80:                                               ; preds = %72, %64, %56, %48
  %81 = getelementptr inbounds [2 x [500 x i8]], [2 x [500 x i8]]* %8, i64 0, i64 1
  %82 = load i32, i32* %5, align 4
  %83 = sext i32 %82 to i64
  %84 = getelementptr inbounds [500 x i8], [500 x i8]* %81, i64 0, i64 %83
  %85 = load i8, i8* %84, align 1
  %86 = sext i8 %85 to i32
  %87 = icmp ne i32 %86, 65
  br i1 %87, label %88, label %115

88:                                               ; preds = %80
  %89 = getelementptr inbounds [2 x [500 x i8]], [2 x [500 x i8]]* %8, i64 0, i64 1
  %90 = load i32, i32* %5, align 4
  %91 = sext i32 %90 to i64
  %92 = getelementptr inbounds [500 x i8], [500 x i8]* %89, i64 0, i64 %91
  %93 = load i8, i8* %92, align 1
  %94 = sext i8 %93 to i32
  %95 = icmp ne i32 %94, 84
  br i1 %95, label %96, label %115

96:                                               ; preds = %88
  %97 = getelementptr inbounds [2 x [500 x i8]], [2 x [500 x i8]]* %8, i64 0, i64 1
  %98 = load i32, i32* %5, align 4
  %99 = sext i32 %98 to i64
  %100 = getelementptr inbounds [500 x i8], [500 x i8]* %97, i64 0, i64 %99
  %101 = load i8, i8* %100, align 1
  %102 = sext i8 %101 to i32
  %103 = icmp ne i32 %102, 67
  br i1 %103, label %104, label %115

104:                                              ; preds = %96
  %105 = getelementptr inbounds [2 x [500 x i8]], [2 x [500 x i8]]* %8, i64 0, i64 1
  %106 = load i32, i32* %5, align 4
  %107 = sext i32 %106 to i64
  %108 = getelementptr inbounds [500 x i8], [500 x i8]* %105, i64 0, i64 %107
  %109 = load i8, i8* %108, align 1
  %110 = sext i8 %109 to i32
  %111 = icmp ne i32 %110, 71
  br i1 %111, label %112, label %115

112:                                              ; preds = %104, %72
  %113 = load i32, i32* %7, align 4
  %114 = add nsw i32 %113, 1
  store i32 %114, i32* %7, align 4
  br label %115

115:                                              ; preds = %112, %104, %96, %88, %80
  br label %116

116:                                              ; preds = %115
  %117 = load i32, i32* %5, align 4
  %118 = add nsw i32 %117, 1
  store i32 %118, i32* %5, align 4
  br label %27

119:                                              ; preds = %27
  %120 = load i32, i32* %6, align 4
  %121 = sitofp i32 %120 to double
  %122 = fmul double 1.000000e+00, %121
  %123 = load i32, i32* %4, align 4
  %124 = sitofp i32 %123 to double
  %125 = fdiv double %122, %124
  store double %125, double* %3, align 8
  br label %138

126:                                              ; preds = %0
  %127 = getelementptr inbounds [2 x [500 x i8]], [2 x [500 x i8]]* %8, i64 0, i64 0
  %128 = getelementptr inbounds [500 x i8], [500 x i8]* %127, i64 0, i64 0
  %129 = call i64 @strlen(i8* %128) #3
  %130 = getelementptr inbounds [2 x [500 x i8]], [2 x [500 x i8]]* %8, i64 0, i64 1
  %131 = getelementptr inbounds [500 x i8], [500 x i8]* %130, i64 0, i64 0
  %132 = call i64 @strlen(i8* %131) #3
  %133 = icmp ne i64 %129, %132
  br i1 %133, label %134, label %137

134:                                              ; preds = %126
  %135 = load i32, i32* %7, align 4
  %136 = add nsw i32 %135, 1
  store i32 %136, i32* %7, align 4
  br label %137

137:                                              ; preds = %134, %126
  br label %138

138:                                              ; preds = %137, %119
  %139 = load i32, i32* %7, align 4
  %140 = icmp eq i32 %139, 0
  br i1 %140, label %141, label %148

141:                                              ; preds = %138
  %142 = load double, double* %3, align 8
  %143 = load double, double* %2, align 8
  %144 = fcmp ogt double %142, %143
  %145 = zext i1 %144 to i64
  %146 = select i1 %144, i8* getelementptr inbounds ([4 x i8], [4 x i8]* @.str.2, i64 0, i64 0), i8* getelementptr inbounds ([3 x i8], [3 x i8]* @.str.3, i64 0, i64 0)
  %147 = call i32 (i8*, ...) @printf(i8* %146)
  br label %154

148:                                              ; preds = %138
  %149 = load i32, i32* %7, align 4
  %150 = icmp ne i32 %149, 0
  br i1 %150, label %151, label %153

151:                                              ; preds = %148
  %152 = call i32 (i8*, ...) @printf(i8* getelementptr inbounds ([6 x i8], [6 x i8]* @.str.4, i64 0, i64 0))
  br label %153

153:                                              ; preds = %151, %148
  br label %154

154:                                              ; preds = %153, %141
  ret i32 0
}

declare dso_local i32 @__isoc99_scanf(i8*, ...) #1

; Function Attrs: nounwind readonly
declare dso_local i64 @strlen(i8*) #2

declare dso_local i32 @printf(i8*, ...) #1


!llvm.module.flags = !{!0}
!llvm.ident = !{!1}

!0 = !{i32 1, !"wchar_size", i32 4}
!1 = !{!"clang version 10.0.0-4ubuntu1 "}
